    200002b8:   80202773                csrr    a4,0x802
    200002bc:   00c76713                ori     a4,a4,12
    200002c0:   80271073                csrw    0x802,a4
    200002c4:   ff960813                addi    a6,a2,-7
    200002c8:   01050833                add     a6,a0,a6
    200002cc:   13057463                bgeu    a0,a6,200003f4 <memcpy_shm_opt+0x14c>
    200002d0:   0005b783                ld      a5,0(a1)
    200002d4:   fff54693                not     a3,a0
    200002d8:   00d806b3                add     a3,a6,a3
    200002dc:   0036d693                srli    a3,a3,0x3
    200002e0:   00f53023                sd      a5,0(a0)
    200002e4:   00850713                addi    a4,a0,8
    200002e8:   0076f793                andi    a5,a3,7
    200002ec:   00858693                addi    a3,a1,8
    200002f0:   0f077863                bgeu    a4,a6,200003e0 <memcpy_shm_opt+0x138>
    200002f4:   08078c63                beqz    a5,2000038c <memcpy_shm_opt+0xe4>
    200002f8:   00100893                li      a7,1
    200002fc:   07178e63                beq     a5,a7,20000378 <memcpy_shm_opt+0xd0>
    20000300:   00200893                li      a7,2
    20000304:   07178263                beq     a5,a7,20000368 <memcpy_shm_opt+0xc0>
    20000308:   00300893                li      a7,3
    2000030c:   05178663                beq     a5,a7,20000358 <memcpy_shm_opt+0xb0>
    20000310:   00400893                li      a7,4
    20000314:   03178a63                beq     a5,a7,20000348 <memcpy_shm_opt+0xa0>
    20000318:   00500893                li      a7,5
    2000031c:   01178e63                beq     a5,a7,20000338 <memcpy_shm_opt+0x90>
    20000320:   00600893                li      a7,6
    20000324:   1f179063                bne     a5,a7,20000504 <memcpy_shm_opt+0x25c>
    20000328:   0006b783                ld      a5,0(a3)
    2000032c:   00870713                addi    a4,a4,8
    20000330:   00868693                addi    a3,a3,8
    20000334:   fef73c23                sd      a5,-8(a4)
    20000338:   0006b783                ld      a5,0(a3)
    2000033c:   00870713                addi    a4,a4,8
    20000340:   00868693                addi    a3,a3,8
    20000344:   fef73c23                sd      a5,-8(a4)
    20000348:   0006b783                ld      a5,0(a3)
    2000034c:   00870713                addi    a4,a4,8
    20000350:   00868693                addi    a3,a3,8
    20000354:   fef73c23                sd      a5,-8(a4)
    20000358:   0006b783                ld      a5,0(a3)
    2000035c:   00870713                addi    a4,a4,8
    20000360:   00868693                addi    a3,a3,8
    20000364:   fef73c23                sd      a5,-8(a4)
    20000368:   0006b783                ld      a5,0(a3)
    2000036c:   00870713                addi    a4,a4,8
    20000370:   00868693                addi    a3,a3,8
    20000374:   fef73c23                sd      a5,-8(a4)
    20000378:   0006b783                ld      a5,0(a3)
    2000037c:   00870713                addi    a4,a4,8
    20000380:   00868693                addi    a3,a3,8
    20000384:   fef73c23                sd      a5,-8(a4)
    20000388:   05077c63                bgeu    a4,a6,200003e0 <memcpy_shm_opt+0x138>
    2000038c:   0006b783                ld      a5,0(a3)
    20000390:   00868313                addi    t1,a3,8
    20000394:   00870893                addi    a7,a4,8
    20000398:   00f73023                sd      a5,0(a4)
    2000039c:   0086b783                ld      a5,8(a3)
    200003a0:   04070713                addi    a4,a4,64
    200003a4:   04068693                addi    a3,a3,64
    200003a8:   fcf73423                sd      a5,-56(a4)
    200003ac:   fd06b783                ld      a5,-48(a3)
    200003b0:   fcf73823                sd      a5,-48(a4)
    200003b4:   01033783                ld      a5,16(t1)
    200003b8:   00f8b823                sd      a5,16(a7)
    200003bc:   01833783                ld      a5,24(t1)
    200003c0:   00f8bc23                sd      a5,24(a7)
    200003c4:   02033783                ld      a5,32(t1)
    200003c8:   02f8b023                sd      a5,32(a7)
    200003cc:   02833783                ld      a5,40(t1)
    200003d0:   02f8b423                sd      a5,40(a7)
    200003d4:   03033783                ld      a5,48(t1)
    200003d8:   02f8b823                sd      a5,48(a7)
    200003dc:   fb0768e3                bltu    a4,a6,2000038c <memcpy_shm_opt+0xe4>
    200003e0:   ff860793                addi    a5,a2,-8
    200003e4:   ff87f793                andi    a5,a5,-8
    200003e8:   00878793                addi    a5,a5,8
    200003ec:   00f585b3                add     a1,a1,a5
    200003f0:   00f507b3                add     a5,a0,a5
    200003f4:   80202773                csrr    a4,0x802
    200003f8:   ff377713                andi    a4,a4,-13
    200003fc:   80271073                csrw    0x802,a4